; Function Attrs: null_pointer_is_valid sspstrong uwtable
define internal fastcc void @dissect_nvme_identify_ctrl_resp_mi(ptr noundef %0, ptr noundef %1, i32 noundef range(i32 0, 241) %2) unnamed_addr #0 {
  %4 = load i32, ptr @hf_nvme_identify_ctrl_mi, align 4
  %5 = sub nuw nsw i32 240, %2
  %6 = tail call ptr @proto_tree_add_item(ptr noundef %1, i32 noundef %4, ptr noundef %0, i32 noundef %5, i32 noundef 16, i32 noundef 0)
  %7 = load i32, ptr @ett_data, align 4
  %8 = tail call ptr @proto_item_add_subtree(ptr noundef %6, i32 noundef %7)
  %9 = load i32, ptr @hf_nvme_identify_ctrl_mi_rsvd, align 4
  %10 = tail call ptr @proto_tree_add_item(ptr noundef %8, i32 noundef %9, ptr noundef %0, i32 noundef %5, i32 noundef 13, i32 noundef 0)
  %11 = sub nuw nsw i32 253, %2
  %12 = load i32, ptr @hf_nvme_identify_ctrl_mi_nvmsr, align 16
  %13 = tail call ptr @proto_tree_add_item(ptr noundef %8, i32 noundef %12, ptr noundef %0, i32 noundef %11, i32 noundef 1, i32 noundef -2147483648)
  %14 = load i32, ptr @ett_data, align 4
  %15 = tail call ptr @proto_item_add_subtree(ptr noundef %13, i32 noundef %14)
  br label %16

16:                                               ; preds = %16, %3
  %indvars.iv.i = phi i64 [ 1, %3 ], [ %indvars.iv.next.i, %16 ]
  %17 = getelementptr i32, ptr @hf_nvme_identify_ctrl_mi_nvmsr, i64 %indvars.iv.i
  %18 = load i32, ptr %17, align 4
  %19 = tail call ptr @proto_tree_add_item(ptr noundef %15, i32 noundef %18, ptr noundef %0, i32 noundef %11, i32 noundef 1, i32 noundef -2147483648)
  %indvars.iv.next.i = add nuw nsw i64 %indvars.iv.i, 1
  %exitcond.not.i = icmp eq i64 %indvars.iv.next.i, 4
  br i1 %exitcond.not.i, label %add_group_mask_entry.exit, label %16, !llvm.loop !10

add_group_mask_entry.exit:                        ; preds = %16
  %20 = sub nuw nsw i32 254, %2
  %21 = load i32, ptr @hf_nvme_identify_ctrl_mi_vwci, align 4
  %22 = tail call ptr @proto_tree_add_item(ptr noundef %8, i32 noundef %21, ptr noundef %0, i32 noundef %20, i32 noundef 1, i32 noundef -2147483648)
  %23 = load i32, ptr @ett_data, align 4
  %24 = tail call ptr @proto_item_add_subtree(ptr noundef %22, i32 noundef %23)
  br label %25

25:                                               ; preds = %25, %add_group_mask_entry.exit
  %indvars.iv.i15 = phi i64 [ 1, %add_group_mask_entry.exit ], [ %indvars.iv.next.i16, %25 ]
  %26 = getelementptr i32, ptr @hf_nvme_identify_ctrl_mi_vwci, i64 %indvars.iv.i15
  %27 = load i32, ptr %26, align 4
  %28 = tail call ptr @proto_tree_add_item(ptr noundef %24, i32 noundef %27, ptr noundef %0, i32 noundef %20, i32 noundef 1, i32 noundef -2147483648)
  %indvars.iv.next.i16 = add nuw nsw i64 %indvars.iv.i15, 1
  %exitcond.not.i17 = icmp eq i64 %indvars.iv.next.i16, 3
  br i1 %exitcond.not.i17, label %add_group_mask_entry.exit18, label %25, !llvm.loop !10

add_group_mask_entry.exit18:                      ; preds = %25
  %29 = xor i32 %2, 255
  %30 = load i32, ptr @hf_nvme_identify_ctrl_mi_mec, align 16
  %31 = tail call ptr @proto_tree_add_item(ptr noundef %8, i32 noundef %30, ptr noundef %0, i32 noundef %29, i32 noundef 1, i32 noundef -2147483648)
  %32 = load i32, ptr @ett_data, align 4
  %33 = tail call ptr @proto_item_add_subtree(ptr noundef %31, i32 noundef %32)
  br label %34

34:                                               ; preds = %34, %add_group_mask_entry.exit18
  %indvars.iv.i19 = phi i64 [ 1, %add_group_mask_entry.exit18 ], [ %indvars.iv.next.i20, %34 ]
  %35 = getelementptr i32, ptr @hf_nvme_identify_ctrl_mi_mec, i64 %indvars.iv.i19
  %36 = load i32, ptr %35, align 4
  %37 = tail call ptr @proto_tree_add_item(ptr noundef %33, i32 noundef %36, ptr noundef %0, i32 noundef %29, i32 noundef 1, i32 noundef -2147483648)
  %indvars.iv.next.i20 = add nuw nsw i64 %indvars.iv.i19, 1
  %exitcond.not.i21 = icmp eq i64 %indvars.iv.next.i20, 4
  br i1 %exitcond.not.i21, label %add_group_mask_entry.exit22, label %34, !llvm.loop !10

add_group_mask_entry.exit22:                      ; preds = %34
  ret void
}